target datalayout = "e-m:e-p270:32:32-p271:32:32-p272:64:64-i64:64-i128:128-f80:128-n8:16:32:64-S128"
target triple = "x86_64-pc-linux-gnu"

%struct.ZDICT_params_t = type { i32, i32, i32 }
%struct.ZDICT_fastCover_params_t = type { i32, i32, i32, i32, i32, double, i32, i32, i32, %struct.ZDICT_params_t }

; Function Attrs: nounwind uwtable
define dso_local i64 @ZDICT_trainFromBuffer(ptr noundef %0, i64 noundef %1, ptr noundef %2, ptr noundef %3, i32 noundef %4) #0 {
  %6 = alloca ptr, align 8
  %7 = alloca i64, align 8
  %8 = alloca ptr, align 8
  %9 = alloca ptr, align 8
  %10 = alloca i32, align 4
  %11 = alloca %struct.ZDICT_fastCover_params_t, align 8
  store ptr %0, ptr %6, align 8, !tbaa !8
  store i64 %1, ptr %7, align 8, !tbaa !4
  store ptr %2, ptr %8, align 8, !tbaa !8
  store ptr %3, ptr %9, align 8, !tbaa !12
  store i32 %4, ptr %10, align 4, !tbaa !14
  call void @llvm.lifetime.start.p0(i64 56, ptr %11) #9
  call void @llvm.memset.p0.i64(ptr align 8 %11, i8 0, i64 56, i1 false)
  %12 = getelementptr inbounds nuw %struct.ZDICT_fastCover_params_t, ptr %11, i32 0, i32 1
  store i32 8, ptr %12, align 4, !tbaa !54
  %13 = getelementptr inbounds nuw %struct.ZDICT_fastCover_params_t, ptr %11, i32 0, i32 3
  store i32 4, ptr %13, align 4, !tbaa !57
  %14 = getelementptr inbounds nuw %struct.ZDICT_fastCover_params_t, ptr %11, i32 0, i32 9
  %15 = getelementptr inbounds nuw %struct.ZDICT_params_t, ptr %14, i32 0, i32 0
  store i32 3, ptr %15, align 4, !tbaa !58
  %16 = load ptr, ptr %6, align 8, !tbaa !8
  %17 = load i64, ptr %7, align 8, !tbaa !4
  %18 = load ptr, ptr %8, align 8, !tbaa !8
  %19 = load ptr, ptr %9, align 8, !tbaa !12
  %20 = load i32, ptr %10, align 4, !tbaa !14
  %21 = call i64 @ZDICT_optimizeTrainFromBuffer_fastCover(ptr noundef %16, i64 noundef %17, ptr noundef %18, ptr noundef %19, i32 noundef %20, ptr noundef %11)
  call void @llvm.lifetime.end.p0(i64 56, ptr %11) #9
  ret i64 %21
}