; Function Attrs: nounwind uwtable
define dso_local i64 @ZDICT_trainFromBuffer(ptr noundef %0, i64 noundef %1, ptr noundef %2, ptr noundef %3, i32 noundef %4) local_unnamed_addr #1 {
  %6 = alloca %struct.ZDICT_fastCover_params_t, align 8
  call void @llvm.lifetime.start.p0(i64 56, ptr nonnull %6) #15
  call void @llvm.memset.p0.i64(ptr noundef nonnull align 8 dereferenceable(56) %6, i8 0, i64 56, i1 false)
  %7 = getelementptr inbounds nuw i8, ptr %6, i64 4
  store i32 8, ptr %7, align 4, !tbaa !81
  %8 = getelementptr inbounds nuw i8, ptr %6, i64 12
  store i32 4, ptr %8, align 4, !tbaa !84
  %9 = getelementptr inbounds nuw i8, ptr %6, i64 44
  store i32 3, ptr %9, align 4, !tbaa !85
  %10 = call i64 @ZDICT_optimizeTrainFromBuffer_fastCover(ptr noundef %0, i64 noundef %1, ptr noundef %2, ptr noundef %3, i32 noundef %4, ptr noundef nonnull %6) #15
  call void @llvm.lifetime.end.p0(i64 56, ptr nonnull %6) #15
  ret i64 %10
}